target datalayout = "e-m:e-p270:32:32-p271:32:32-p272:64:64-i64:64-i128:128-f80:128-n8:16:32:64-S128"
target triple = "x86_64-pc-linux-gnu"

%struct._serv_port_custom_key = type { i16, i32 }
%struct.cb_serv_data = type { ptr, i32 }

@addr_resolv_scope = internal global ptr null, align 8
@serv_port_custom_hashtable = internal global ptr null, align 8

; Function Attrs: null_pointer_is_valid sspstrong uwtable
define internal void @add_custom_service_name(i32 noundef %0, i32 noundef %1, ptr noundef %2) #3 {
  %4 = alloca i32, align 4
  %5 = alloca i32, align 4
  %6 = alloca ptr, align 8
  %7 = alloca ptr, align 8
  %8 = alloca ptr, align 8
  %9 = alloca ptr, align 8
  store i32 %0, ptr %4, align 4
  store i32 %1, ptr %5, align 4
  store ptr %2, ptr %6, align 8
  call void @llvm.lifetime.start.p0(i64 8, ptr %7) #16
  call void @llvm.lifetime.start.p0(i64 8, ptr %8) #16
  call void @llvm.lifetime.start.p0(i64 8, ptr %9) #16
  %10 = load ptr, ptr @addr_resolv_scope, align 8
  %11 = call noalias ptr @wmem_alloc(ptr noundef %10, i64 noundef 8) #19
  store ptr %11, ptr %8, align 8
  %12 = load i32, ptr %5, align 4
  %13 = trunc i32 %12 to i16
  %14 = load ptr, ptr %8, align 8
  %15 = getelementptr inbounds nuw %struct._serv_port_custom_key, ptr %14, i32 0, i32 0
  store i16 %13, ptr %15, align 4
  %16 = load i32, ptr %4, align 4
  %17 = load ptr, ptr %8, align 8
  %18 = getelementptr inbounds nuw %struct._serv_port_custom_key, ptr %17, i32 0, i32 1
  store i32 %16, ptr %18, align 4
  %19 = load ptr, ptr @serv_port_custom_hashtable, align 8
  %20 = load ptr, ptr %8, align 8
  %21 = call zeroext i1 @wmem_map_lookup_extended(ptr noundef %19, ptr noundef %20, ptr noundef %9, ptr noundef %7)
  br i1 %21, label %22, label %27

22:                                               ; preds = %3
  %23 = load ptr, ptr @addr_resolv_scope, align 8
  %24 = load ptr, ptr %9, align 8
  call void @wmem_free(ptr noundef %23, ptr noundef %24)
  %25 = load ptr, ptr @addr_resolv_scope, align 8
  %26 = load ptr, ptr %7, align 8
  call void @wmem_free(ptr noundef %25, ptr noundef %26)
  br label %27

27:                                               ; preds = %22, %3
  %28 = load ptr, ptr @addr_resolv_scope, align 8
  %29 = load ptr, ptr %6, align 8
  %30 = call noalias ptr @wmem_strdup(ptr noundef %28, ptr noundef %29)
  store ptr %30, ptr %7, align 8
  %31 = load ptr, ptr @serv_port_custom_hashtable, align 8
  %32 = load ptr, ptr %8, align 8
  %33 = load ptr, ptr %7, align 8
  %34 = call ptr @wmem_map_insert(ptr noundef %31, ptr noundef %32, ptr noundef %33)
  call void @llvm.lifetime.end.p0(i64 8, ptr %9) #16
  call void @llvm.lifetime.end.p0(i64 8, ptr %8) #16
  call void @llvm.lifetime.end.p0(i64 8, ptr %7) #16
  ret void
}

; Function Attrs: null_pointer_is_valid sspstrong uwtable
define internal void @add_serv_port_cb(i32 noundef %0, ptr noundef %1) #3 {
  %3 = alloca i32, align 4
  %4 = alloca ptr, align 8
  %5 = alloca ptr, align 8
  store i32 %0, ptr %3, align 4
  store ptr %1, ptr %4, align 8
  call void @llvm.lifetime.start.p0(i64 8, ptr %5) #16
  %6 = load ptr, ptr %4, align 8
  store ptr %6, ptr %5, align 8
  %7 = load i32, ptr %3, align 4
  %8 = icmp ne i32 %7, 0
  br i1 %8, label %9, label %17

9:                                                ; preds = %2
  %10 = load ptr, ptr %5, align 8
  %11 = getelementptr inbounds nuw %struct.cb_serv_data, ptr %10, i32 0, i32 1
  %12 = load i32, ptr %11, align 8
  %13 = load i32, ptr %3, align 4
  %14 = load ptr, ptr %5, align 8
  %15 = getelementptr inbounds nuw %struct.cb_serv_data, ptr %14, i32 0, i32 0
  %16 = load ptr, ptr %15, align 8
  call void @add_custom_service_name(i32 noundef %12, i32 noundef %13, ptr noundef %16)
  br label %17

17:                                               ; preds = %9, %2
  call void @llvm.lifetime.end.p0(i64 8, ptr %5) #16
  ret void
}