; Function Attrs: null_pointer_is_valid sspstrong uwtable
define internal void @add_serv_port_cb(i32 noundef %0, ptr noundef readonly captures(none) %1) #3 {
  %3 = alloca ptr, align 8
  %4 = alloca ptr, align 8
  %.not = icmp eq i32 %0, 0
  br i1 %.not, label %24, label %5

5:                                                ; preds = %2
  %6 = getelementptr inbounds nuw i8, ptr %1, i64 8
  %7 = load i32, ptr %6, align 8
  %8 = load ptr, ptr %1, align 8
  call void @llvm.lifetime.start.p0(i64 8, ptr nonnull %3) #24
  call void @llvm.lifetime.start.p0(i64 8, ptr nonnull %4) #24
  %9 = load ptr, ptr @addr_resolv_scope, align 8
  %10 = tail call noalias dereferenceable_or_null(8) ptr @wmem_alloc(ptr noundef %9, i64 noundef 8) #26
  %11 = trunc i32 %0 to i16
  store i16 %11, ptr %10, align 4
  %12 = getelementptr inbounds nuw i8, ptr %10, i64 4
  store i32 %7, ptr %12, align 4
  %13 = load ptr, ptr @serv_port_custom_hashtable, align 8
  %14 = call zeroext i1 @wmem_map_lookup_extended(ptr noundef %13, ptr noundef %10, ptr noundef nonnull %4, ptr noundef nonnull %3)
  br i1 %14, label %15, label %add_custom_service_name.exit

15:                                               ; preds = %5
  %16 = load ptr, ptr @addr_resolv_scope, align 8
  %17 = load ptr, ptr %4, align 8
  call void @wmem_free(ptr noundef %16, ptr noundef %17)
  %18 = load ptr, ptr @addr_resolv_scope, align 8
  %19 = load ptr, ptr %3, align 8
  call void @wmem_free(ptr noundef %18, ptr noundef %19)
  br label %add_custom_service_name.exit

add_custom_service_name.exit:                     ; preds = %5, %15
  %20 = load ptr, ptr @addr_resolv_scope, align 8
  %21 = call noalias ptr @wmem_strdup(ptr noundef %20, ptr noundef %8)
  store ptr %21, ptr %3, align 8
  %22 = load ptr, ptr @serv_port_custom_hashtable, align 8
  %23 = call ptr @wmem_map_insert(ptr noundef %22, ptr noundef %10, ptr noundef %21)
  call void @llvm.lifetime.end.p0(i64 8, ptr nonnull %4) #24
  call void @llvm.lifetime.end.p0(i64 8, ptr nonnull %3) #24
  br label %24

24:                                               ; preds = %add_custom_service_name.exit, %2
  ret void
}